; Function Attrs: mustprogress uwtable
define hidden noundef zeroext i1 @_ZN11mpf_manager2eqERK3mpfS2_(ptr noundef nonnull align 8 dereferenceable(840) %this, ptr noundef nonnull align 8 dereferenceable(32) %x, ptr noundef nonnull align 8 dereferenceable(32) %y) local_unnamed_addr #5 align 2 {
entry:
  %exponent.i.i.i = getelementptr inbounds i8, ptr %x, i64 24
  %0 = load i64, ptr %exponent.i.i.i, align 8
  %bf.load.i.i = load i32, ptr %x, align 8
  %bf.clear.i.i = and i32 %bf.load.i.i, 32767
  %m_mpz_manager.i.i.i = getelementptr inbounds i8, ptr %this, i64 728
  %1 = load ptr, ptr %m_mpz_manager.i.i.i, align 8
  %m_powers2.i.i.i = getelementptr inbounds i8, ptr %this, i64 736
  %sub.i.i.i = add nsw i32 %bf.clear.i.i, -1
  %call.i.i.i = tail call noundef nonnull align 8 dereferenceable(16) ptr @_ZN11mpf_manager7powers2clEjb(ptr noundef nonnull align 8 dereferenceable(104) %m_powers2.i.i.i, i32 noundef %sub.i.i.i, i1 noundef zeroext false)
  %call2.i.i.i = tail call noundef i64 @_ZNK11mpz_managerILb0EE9get_int64ERK3mpz(ptr noundef nonnull align 8 dereferenceable(600) %1, ptr noundef nonnull align 8 dereferenceable(16) %call.i.i.i)
  %cmp.i.i = icmp eq i64 %0, %call2.i.i.i
  %significand.i.i = getelementptr inbounds i8, ptr %x, i64 8
  %2 = load i32, ptr %significand.i.i, align 8
  %cmp.i2.i = icmp ne i32 %2, 0
  %3 = select i1 %cmp.i.i, i1 %cmp.i2.i, i1 false
  br i1 %3, label %return, label %lor.lhs.false

lor.lhs.false:                                    ; preds = %entry
  %exponent.i.i.i9 = getelementptr inbounds i8, ptr %y, i64 24
  %4 = load i64, ptr %exponent.i.i.i9, align 8
  %bf.load.i.i10 = load i32, ptr %y, align 8
  %bf.clear.i.i11 = and i32 %bf.load.i.i10, 32767
  %5 = load ptr, ptr %m_mpz_manager.i.i.i, align 8
  %sub.i.i.i14 = add nsw i32 %bf.clear.i.i11, -1
  %call.i.i.i15 = tail call noundef nonnull align 8 dereferenceable(16) ptr @_ZN11mpf_manager7powers2clEjb(ptr noundef nonnull align 8 dereferenceable(104) %m_powers2.i.i.i, i32 noundef %sub.i.i.i14, i1 noundef zeroext false)
  %call2.i.i.i16 = tail call noundef i64 @_ZNK11mpz_managerILb0EE9get_int64ERK3mpz(ptr noundef nonnull align 8 dereferenceable(600) %5, ptr noundef nonnull align 8 dereferenceable(16) %call.i.i.i15)
  %cmp.i.i17 = icmp eq i64 %4, %call2.i.i.i16
  %significand.i.i18 = getelementptr inbounds i8, ptr %y, i64 8
  %6 = load i32, ptr %significand.i.i18, align 8
  %cmp.i2.i19 = icmp ne i32 %6, 0
  %7 = select i1 %cmp.i.i17, i1 %cmp.i2.i19, i1 false
  br i1 %7, label %return, label %if.else

if.else:                                          ; preds = %lor.lhs.false
  %8 = load i64, ptr %exponent.i.i.i, align 8
  %bf.load.i.i21 = load i32, ptr %x, align 8
  %bf.clear.i.i22 = and i32 %bf.load.i.i21, 32767
  %9 = load ptr, ptr %m_mpz_manager.i.i.i, align 8
  %sub.i.i.i25 = add nsw i32 %bf.clear.i.i22, -1
  %call.i.i.i26 = tail call noundef nonnull align 8 dereferenceable(16) ptr @_ZN11mpf_manager7powers22m1Ejb(ptr noundef nonnull align 8 dereferenceable(104) %m_powers2.i.i.i, i32 noundef %sub.i.i.i25, i1 noundef zeroext true)
  %call2.i.i.i27 = tail call noundef i64 @_ZNK11mpz_managerILb0EE9get_int64ERK3mpz(ptr noundef nonnull align 8 dereferenceable(600) %9, ptr noundef nonnull align 8 dereferenceable(16) %call.i.i.i26)
  %cmp.i.i28 = icmp eq i64 %8, %call2.i.i.i27
  %10 = load i32, ptr %significand.i.i, align 8
  %cmp.i2.i30 = icmp eq i32 %10, 0
  %11 = select i1 %cmp.i.i28, i1 %cmp.i2.i30, i1 false
  br i1 %11, label %land.lhs.true, label %if.else6

land.lhs.true:                                    ; preds = %if.else
  %12 = load i64, ptr %exponent.i.i.i9, align 8
  %bf.load.i.i32 = load i32, ptr %y, align 8
  %bf.clear.i.i33 = and i32 %bf.load.i.i32, 32767
  %13 = load ptr, ptr %m_mpz_manager.i.i.i, align 8
  %sub.i.i.i36 = add nsw i32 %bf.clear.i.i33, -1
  %call.i.i.i37 = tail call noundef nonnull align 8 dereferenceable(16) ptr @_ZN11mpf_manager7powers22m1Ejb(ptr noundef nonnull align 8 dereferenceable(104) %m_powers2.i.i.i, i32 noundef %sub.i.i.i36, i1 noundef zeroext true)
  %call2.i.i.i38 = tail call noundef i64 @_ZNK11mpz_managerILb0EE9get_int64ERK3mpz(ptr noundef nonnull align 8 dereferenceable(600) %13, ptr noundef nonnull align 8 dereferenceable(16) %call.i.i.i37)
  %cmp.i.i39 = icmp eq i64 %12, %call2.i.i.i38
  %14 = load i32, ptr %significand.i.i18, align 8
  %cmp.i2.i41 = icmp eq i32 %14, 0
  %15 = select i1 %cmp.i.i39, i1 %cmp.i2.i41, i1 false
  br i1 %15, label %return, label %if.else6

if.else6:                                         ; preds = %land.lhs.true, %if.else
  %bf.load.i = load i32, ptr %x, align 8
  %bf.load.i42 = load i32, ptr %y, align 8
  %16 = xor i32 %bf.load.i42, %bf.load.i
  %17 = icmp slt i32 %16, 0
  br i1 %17, label %return, label %if.else11

if.else11:                                        ; preds = %if.else6
  %18 = load i64, ptr %exponent.i.i.i, align 8
  %19 = load i64, ptr %exponent.i.i.i9, align 8
  %cmp14 = icmp eq i64 %18, %19
  br i1 %cmp14, label %land.rhs, label %return

land.rhs:                                         ; preds = %if.else11
  %20 = load ptr, ptr %m_mpz_manager.i.i.i, align 8
  %m_kind.i.i = getelementptr inbounds i8, ptr %x, i64 12
  %bf.load.i.i46 = load i8, ptr %m_kind.i.i, align 4
  %bf.clear.i.i47 = and i8 %bf.load.i.i46, 1
  %cmp.i.i48 = icmp eq i8 %bf.clear.i.i47, 0
  br i1 %cmp.i.i48, label %land.lhs.true.i, label %if.else.i

land.lhs.true.i:                                  ; preds = %land.rhs
  %m_kind.i5.i = getelementptr inbounds i8, ptr %y, i64 12
  %bf.load.i6.i = load i8, ptr %m_kind.i5.i, align 4
  %bf.clear.i7.i = and i8 %bf.load.i6.i, 1
  %cmp.i8.i = icmp eq i8 %bf.clear.i7.i, 0
  br i1 %cmp.i8.i, label %if.then.i, label %if.else.i

if.then.i:                                        ; preds = %land.lhs.true.i
  %21 = load i32, ptr %significand.i.i, align 8
  %22 = load i32, ptr %significand.i.i18, align 8
  %cmp.i = icmp eq i32 %21, %22
  br label %return

if.else.i:                                        ; preds = %land.lhs.true.i, %land.rhs
  %call4.i = tail call noundef i32 @_ZN11mpz_managerILb0EE11big_compareERK3mpzS3_(ptr noundef nonnull align 8 dereferenceable(600) %20, ptr noundef nonnull align 8 dereferenceable(16) %significand.i.i, ptr noundef nonnull align 8 dereferenceable(16) %significand.i.i18)
  %cmp5.i = icmp eq i32 %call4.i, 0
  br label %return

return:                                           ; preds = %if.else.i, %if.then.i, %if.else11, %if.else6, %land.lhs.true, %entry, %lor.lhs.false
  %retval.0 = phi i1 [ false, %lor.lhs.false ], [ false, %entry ], [ true, %land.lhs.true ], [ false, %if.else6 ], [ false, %if.else11 ], [ %cmp.i, %if.then.i ], [ %cmp5.i, %if.else.i ]
  ret i1 %retval.0
}